target datalayout = "e-m:e-p270:32:32-p271:32:32-p272:64:64-i64:64-i128:128-f80:128-n8:16:32:64-S128"
target triple = "x86_64-unknown-linux-gnu"

%"class.boost::shared_ptr" = type { ptr, %"class.boost::detail::shared_count" }
%"class.boost::detail::shared_count" = type { ptr }
%"class.QuantLib::NoArbSabrModel" = type { double, double, double, double, double, double, double, double, double, double, double, double, %"class.boost::shared_ptr" }

; Function Attrs: mustprogress uwtable
define noundef double @_ZNK8QuantLib14NoArbSabrModel1pEd(ptr noundef nonnull align 8 dereferenceable(112) %this, double noundef %f) #0 align 2 {
entry:
  %retval = alloca double, align 8
  %this.addr = alloca ptr, align 8
  %f.addr = alloca double, align 8
  %fOmB = alloca double, align 8
  %FOmB = alloca double, align 8
  %zf = alloca double, align 8
  %zF = alloca double, align 8
  %z = alloca double, align 8
  %Jmzf = alloca double, align 8
  %Jz = alloca double, align 8
  %xz = alloca double, align 8
  %Bp_B = alloca double, align 8
  %kappa1 = alloca double, align 8
  %gamma = alloca double, align 8
  %sqrtOmR = alloca double, align 8
  %h = alloca double, align 8
  %res = alloca double, align 8
  store ptr %this, ptr %this.addr, align 8, !tbaa !3
  store double %f, ptr %f.addr, align 8, !tbaa !7
  %this1 = load ptr, ptr %this.addr, align 8
  %0 = load double, ptr %f.addr, align 8, !tbaa !7
  %cmp = fcmp olt double %0, 1.000000e-50
  br i1 %cmp, label %if.then, label %lor.lhs.false

lor.lhs.false:                                    ; preds = %entry
  %forward_ = getelementptr inbounds nuw %"class.QuantLib::NoArbSabrModel", ptr %this1, i32 0, i32 9
  %1 = load double, ptr %forward_, align 8, !tbaa !18
  %cmp2 = fcmp olt double %1, 1.000000e-50
  br i1 %cmp2, label %if.then, label %if.end

if.then:                                          ; preds = %lor.lhs.false, %entry
  store double 0.000000e+00, ptr %retval, align 8
  br label %return

if.end:                                           ; preds = %lor.lhs.false
  call void @llvm.lifetime.start.p0(i64 8, ptr %fOmB) #24
  %2 = load double, ptr %f.addr, align 8, !tbaa !7
  %beta_ = getelementptr inbounds nuw %"class.QuantLib::NoArbSabrModel", ptr %this1, i32 0, i32 3
  %3 = load double, ptr %beta_, align 8, !tbaa !15
  %sub = fsub double 1.000000e+00, %3
  %call = call double @pow(double noundef %2, double noundef %sub) #24, !tbaa !20
  store double %call, ptr %fOmB, align 8, !tbaa !7
  call void @llvm.lifetime.start.p0(i64 8, ptr %FOmB) #24
  %forward_3 = getelementptr inbounds nuw %"class.QuantLib::NoArbSabrModel", ptr %this1, i32 0, i32 9
  %4 = load double, ptr %forward_3, align 8, !tbaa !18
  %beta_4 = getelementptr inbounds nuw %"class.QuantLib::NoArbSabrModel", ptr %this1, i32 0, i32 3
  %5 = load double, ptr %beta_4, align 8, !tbaa !15
  %sub5 = fsub double 1.000000e+00, %5
  %call6 = call double @pow(double noundef %4, double noundef %sub5) #24, !tbaa !20
  store double %call6, ptr %FOmB, align 8, !tbaa !7
  call void @llvm.lifetime.start.p0(i64 8, ptr %zf) #24
  %6 = load double, ptr %fOmB, align 8, !tbaa !7
  %alpha_ = getelementptr inbounds nuw %"class.QuantLib::NoArbSabrModel", ptr %this1, i32 0, i32 2
  %7 = load double, ptr %alpha_, align 8, !tbaa !14
  %beta_7 = getelementptr inbounds nuw %"class.QuantLib::NoArbSabrModel", ptr %this1, i32 0, i32 3
  %8 = load double, ptr %beta_7, align 8, !tbaa !15
  %sub8 = fsub double 1.000000e+00, %8
  %mul = fmul double %7, %sub8
  %div = fdiv double %6, %mul
  store double %div, ptr %zf, align 8, !tbaa !7
  call void @llvm.lifetime.start.p0(i64 8, ptr %zF) #24
  %9 = load double, ptr %FOmB, align 8, !tbaa !7
  %alpha_9 = getelementptr inbounds nuw %"class.QuantLib::NoArbSabrModel", ptr %this1, i32 0, i32 2
  %10 = load double, ptr %alpha_9, align 8, !tbaa !14
  %beta_10 = getelementptr inbounds nuw %"class.QuantLib::NoArbSabrModel", ptr %this1, i32 0, i32 3
  %11 = load double, ptr %beta_10, align 8, !tbaa !15
  %sub11 = fsub double 1.000000e+00, %11
  %mul12 = fmul double %10, %sub11
  %div13 = fdiv double %9, %mul12
  store double %div13, ptr %zF, align 8, !tbaa !7
  call void @llvm.lifetime.start.p0(i64 8, ptr %z) #24
  %12 = load double, ptr %zF, align 8, !tbaa !7
  %13 = load double, ptr %zf, align 8, !tbaa !7
  %sub14 = fsub double %12, %13
  store double %sub14, ptr %z, align 8, !tbaa !7
  call void @llvm.lifetime.start.p0(i64 8, ptr %Jmzf) #24
  %rho_ = getelementptr inbounds nuw %"class.QuantLib::NoArbSabrModel", ptr %this1, i32 0, i32 5
  %14 = load double, ptr %rho_, align 8, !tbaa !17
  %mul15 = fmul double 2.000000e+00, %14
  %nu_ = getelementptr inbounds nuw %"class.QuantLib::NoArbSabrModel", ptr %this1, i32 0, i32 4
  %15 = load double, ptr %nu_, align 8, !tbaa !16
  %mul16 = fmul double %mul15, %15
  %16 = load double, ptr %zf, align 8, !tbaa !7
  %17 = call double @llvm.fmuladd.f64(double %mul16, double %16, double 1.000000e+00)
  %nu_18 = getelementptr inbounds nuw %"class.QuantLib::NoArbSabrModel", ptr %this1, i32 0, i32 4
  %18 = load double, ptr %nu_18, align 8, !tbaa !16
  %nu_19 = getelementptr inbounds nuw %"class.QuantLib::NoArbSabrModel", ptr %this1, i32 0, i32 4
  %19 = load double, ptr %nu_19, align 8, !tbaa !16
  %mul20 = fmul double %18, %19
  %20 = load double, ptr %zf, align 8, !tbaa !7
  %mul21 = fmul double %mul20, %20
  %21 = load double, ptr %zf, align 8, !tbaa !7
  %22 = call double @llvm.fmuladd.f64(double %mul21, double %21, double %17)
  %call23 = call double @sqrt(double noundef %22) #24, !tbaa !20
  store double %call23, ptr %Jmzf, align 8, !tbaa !7
  call void @llvm.lifetime.start.p0(i64 8, ptr %Jz) #24
  %rho_24 = getelementptr inbounds nuw %"class.QuantLib::NoArbSabrModel", ptr %this1, i32 0, i32 5
  %23 = load double, ptr %rho_24, align 8, !tbaa !17
  %mul25 = fmul double 2.000000e+00, %23
  %nu_26 = getelementptr inbounds nuw %"class.QuantLib::NoArbSabrModel", ptr %this1, i32 0, i32 4
  %24 = load double, ptr %nu_26, align 8, !tbaa !16
  %mul27 = fmul double %mul25, %24
  %25 = load double, ptr %z, align 8, !tbaa !7
  %neg = fneg double %mul27
  %26 = call double @llvm.fmuladd.f64(double %neg, double %25, double 1.000000e+00)
  %nu_29 = getelementptr inbounds nuw %"class.QuantLib::NoArbSabrModel", ptr %this1, i32 0, i32 4
  %27 = load double, ptr %nu_29, align 8, !tbaa !16
  %nu_30 = getelementptr inbounds nuw %"class.QuantLib::NoArbSabrModel", ptr %this1, i32 0, i32 4
  %28 = load double, ptr %nu_30, align 8, !tbaa !16
  %mul31 = fmul double %27, %28
  %29 = load double, ptr %z, align 8, !tbaa !7
  %mul32 = fmul double %mul31, %29
  %30 = load double, ptr %z, align 8, !tbaa !7
  %31 = call double @llvm.fmuladd.f64(double %mul32, double %30, double %26)
  %call34 = call double @sqrt(double noundef %31) #24, !tbaa !20
  store double %call34, ptr %Jz, align 8, !tbaa !7
  call void @llvm.lifetime.start.p0(i64 8, ptr %xz) #24
  %32 = load double, ptr %Jz, align 8, !tbaa !7
  %rho_35 = getelementptr inbounds nuw %"class.QuantLib::NoArbSabrModel", ptr %this1, i32 0, i32 5
  %33 = load double, ptr %rho_35, align 8, !tbaa !17
  %sub36 = fsub double %32, %33
  %nu_37 = getelementptr inbounds nuw %"class.QuantLib::NoArbSabrModel", ptr %this1, i32 0, i32 4
  %34 = load double, ptr %nu_37, align 8, !tbaa !16
  %35 = load double, ptr %z, align 8, !tbaa !7
  %36 = call double @llvm.fmuladd.f64(double %34, double %35, double %sub36)
  %rho_39 = getelementptr inbounds nuw %"class.QuantLib::NoArbSabrModel", ptr %this1, i32 0, i32 5
  %37 = load double, ptr %rho_39, align 8, !tbaa !17
  %sub40 = fsub double 1.000000e+00, %37
  %div41 = fdiv double %36, %sub40
  %call42 = call double @log(double noundef %div41) #24, !tbaa !20
  %nu_43 = getelementptr inbounds nuw %"class.QuantLib::NoArbSabrModel", ptr %this1, i32 0, i32 4
  %38 = load double, ptr %nu_43, align 8, !tbaa !16
  %div44 = fdiv double %call42, %38
  store double %div44, ptr %xz, align 8, !tbaa !7
  call void @llvm.lifetime.start.p0(i64 8, ptr %Bp_B) #24
  %beta_45 = getelementptr inbounds nuw %"class.QuantLib::NoArbSabrModel", ptr %this1, i32 0, i32 3
  %39 = load double, ptr %beta_45, align 8, !tbaa !15
  %40 = load double, ptr %FOmB, align 8, !tbaa !7
  %div46 = fdiv double %39, %40
  store double %div46, ptr %Bp_B, align 8, !tbaa !7
  call void @llvm.lifetime.start.p0(i64 8, ptr %kappa1) #24
  %nu_47 = getelementptr inbounds nuw %"class.QuantLib::NoArbSabrModel", ptr %this1, i32 0, i32 4
  %41 = load double, ptr %nu_47, align 8, !tbaa !16
  %mul48 = fmul double 1.250000e-01, %41
  %nu_49 = getelementptr inbounds nuw %"class.QuantLib::NoArbSabrModel", ptr %this1, i32 0, i32 4
  %42 = load double, ptr %nu_49, align 8, !tbaa !16
  %mul50 = fmul double %mul48, %42
  %rho_51 = getelementptr inbounds nuw %"class.QuantLib::NoArbSabrModel", ptr %this1, i32 0, i32 5
  %43 = load double, ptr %rho_51, align 8, !tbaa !17
  %mul52 = fmul double 3.000000e+00, %43
  %rho_53 = getelementptr inbounds nuw %"class.QuantLib::NoArbSabrModel", ptr %this1, i32 0, i32 5
  %44 = load double, ptr %rho_53, align 8, !tbaa !17
  %neg55 = fneg double %mul52
  %45 = call double @llvm.fmuladd.f64(double %neg55, double %44, double 2.000000e+00)
  %rho_57 = getelementptr inbounds nuw %"class.QuantLib::NoArbSabrModel", ptr %this1, i32 0, i32 5
  %46 = load double, ptr %rho_57, align 8, !tbaa !17
  %mul58 = fmul double 2.500000e-01, %46
  %nu_59 = getelementptr inbounds nuw %"class.QuantLib::NoArbSabrModel", ptr %this1, i32 0, i32 4
  %47 = load double, ptr %nu_59, align 8, !tbaa !16
  %mul60 = fmul double %mul58, %47
  %alpha_61 = getelementptr inbounds nuw %"class.QuantLib::NoArbSabrModel", ptr %this1, i32 0, i32 2
  %48 = load double, ptr %alpha_61, align 8, !tbaa !14
  %mul62 = fmul double %mul60, %48
  %49 = load double, ptr %Bp_B, align 8, !tbaa !7
  %mul63 = fmul double %mul62, %49
  %neg64 = fneg double %mul63
  %50 = call double @llvm.fmuladd.f64(double %mul50, double %45, double %neg64)
  store double %50, ptr %kappa1, align 8, !tbaa !7
  call void @llvm.lifetime.start.p0(i64 8, ptr %gamma) #24
  %beta_65 = getelementptr inbounds nuw %"class.QuantLib::NoArbSabrModel", ptr %this1, i32 0, i32 3
  %51 = load double, ptr %beta_65, align 8, !tbaa !15
  %sub66 = fsub double 1.000000e+00, %51
  %mul67 = fmul double 2.000000e+00, %sub66
  %div68 = fdiv double 1.000000e+00, %mul67
  store double %div68, ptr %gamma, align 8, !tbaa !7
  call void @llvm.lifetime.start.p0(i64 8, ptr %sqrtOmR) #24
  %rho_69 = getelementptr inbounds nuw %"class.QuantLib::NoArbSabrModel", ptr %this1, i32 0, i32 5
  %52 = load double, ptr %rho_69, align 8, !tbaa !17
  %rho_70 = getelementptr inbounds nuw %"class.QuantLib::NoArbSabrModel", ptr %this1, i32 0, i32 5
  %53 = load double, ptr %rho_70, align 8, !tbaa !17
  %neg72 = fneg double %52
  %54 = call double @llvm.fmuladd.f64(double %neg72, double %53, double 1.000000e+00)
  %call73 = call double @sqrt(double noundef %54) #24, !tbaa !20
  store double %call73, ptr %sqrtOmR, align 8, !tbaa !7
  call void @llvm.lifetime.start.p0(i64 8, ptr %h) #24
  %beta_74 = getelementptr inbounds nuw %"class.QuantLib::NoArbSabrModel", ptr %this1, i32 0, i32 3
  %55 = load double, ptr %beta_74, align 8, !tbaa !15
  %mul75 = fmul double 5.000000e-01, %55
  %rho_76 = getelementptr inbounds nuw %"class.QuantLib::NoArbSabrModel", ptr %this1, i32 0, i32 5
  %56 = load double, ptr %rho_76, align 8, !tbaa !17
  %mul77 = fmul double %mul75, %56
  %beta_78 = getelementptr inbounds nuw %"class.QuantLib::NoArbSabrModel", ptr %this1, i32 0, i32 3
  %57 = load double, ptr %beta_78, align 8, !tbaa !15
  %sub79 = fsub double 1.000000e+00, %57
  %58 = load double, ptr %Jmzf, align 8, !tbaa !7
  %mul80 = fmul double %sub79, %58
  %59 = load double, ptr %Jmzf, align 8, !tbaa !7
  %mul81 = fmul double %mul80, %59
  %div82 = fdiv double %mul77, %mul81
  %nu_83 = getelementptr inbounds nuw %"class.QuantLib::NoArbSabrModel", ptr %this1, i32 0, i32 4
  %60 = load double, ptr %nu_83, align 8, !tbaa !16
  %61 = load double, ptr %zf, align 8, !tbaa !7
  %mul84 = fmul double %60, %61
  %62 = load double, ptr %zf, align 8, !tbaa !7
  %63 = load double, ptr %Jz, align 8, !tbaa !7
  %mul85 = fmul double %62, %63
  %64 = load double, ptr %zF, align 8, !tbaa !7
  %div86 = fdiv double %mul85, %64
  %call87 = call double @log(double noundef %div86) #24, !tbaa !20
  %rho_89 = getelementptr inbounds nuw %"class.QuantLib::NoArbSabrModel", ptr %this1, i32 0, i32 5
  %65 = load double, ptr %rho_89, align 8, !tbaa !17
  %nu_90 = getelementptr inbounds nuw %"class.QuantLib::NoArbSabrModel", ptr %this1, i32 0, i32 4
  %66 = load double, ptr %nu_90, align 8, !tbaa !16
  %mul91 = fmul double %65, %66
  %67 = load double, ptr %zf, align 8, !tbaa !7
  %68 = call double @llvm.fmuladd.f64(double %mul91, double %67, double 1.000000e+00)
  %69 = load double, ptr %sqrtOmR, align 8, !tbaa !7
  %div93 = fdiv double %68, %69
  %nu_94 = getelementptr inbounds nuw %"class.QuantLib::NoArbSabrModel", ptr %this1, i32 0, i32 4
  %70 = load double, ptr %nu_94, align 8, !tbaa !16
  %71 = load double, ptr %z, align 8, !tbaa !7
  %rho_96 = getelementptr inbounds nuw %"class.QuantLib::NoArbSabrModel", ptr %this1, i32 0, i32 5
  %72 = load double, ptr %rho_96, align 8, !tbaa !17
  %neg97 = fneg double %72
  %73 = call double @llvm.fmuladd.f64(double %70, double %71, double %neg97)
  %74 = load double, ptr %sqrtOmR, align 8, !tbaa !7
  %div98 = fdiv double %73, %74
  %call99 = call double @atan(double noundef %div98) #24, !tbaa !20
  %rho_100 = getelementptr inbounds nuw %"class.QuantLib::NoArbSabrModel", ptr %this1, i32 0, i32 5
  %75 = load double, ptr %rho_100, align 8, !tbaa !17
  %76 = load double, ptr %sqrtOmR, align 8, !tbaa !7
  %div101 = fdiv double %75, %76
  %call102 = call double @atan(double noundef %div101) #24, !tbaa !20
  %add = fadd double %call99, %call102
  %mul103 = fmul double %div93, %add
  %77 = call double @llvm.fmuladd.f64(double %mul84, double %call87, double %mul103)
  %mul104 = fmul double %div82, %77
  store double %mul104, ptr %h, align 8, !tbaa !7
  call void @llvm.lifetime.start.p0(i64 8, ptr %res) #24
  %78 = load double, ptr %Jz, align 8, !tbaa !7
  %call105 = call double @pow(double noundef %78, double noundef -1.500000e+00) #24, !tbaa !20
  %alpha_106 = getelementptr inbounds nuw %"class.QuantLib::NoArbSabrModel", ptr %this1, i32 0, i32 2
  %79 = load double, ptr %alpha_106, align 8, !tbaa !14
  %80 = load double, ptr %f.addr, align 8, !tbaa !7
  %beta_107 = getelementptr inbounds nuw %"class.QuantLib::NoArbSabrModel", ptr %this1, i32 0, i32 3
  %81 = load double, ptr %beta_107, align 8, !tbaa !15
  %call108 = call double @pow(double noundef %80, double noundef %81) #24, !tbaa !20
  %mul109 = fmul double %79, %call108
  %expiryTime_ = getelementptr inbounds nuw %"class.QuantLib::NoArbSabrModel", ptr %this1, i32 0, i32 0
  %82 = load double, ptr %expiryTime_, align 8, !tbaa !9
  %mul110 = fmul double %mul109, %82
  %div111 = fdiv double %call105, %mul110
  %83 = load double, ptr %zf, align 8, !tbaa !7
  %84 = load double, ptr %gamma, align 8, !tbaa !7
  %sub112 = fsub double 1.000000e+00, %84
  %call113 = call double @pow(double noundef %83, double noundef %sub112) #24, !tbaa !20
  %mul114 = fmul double %div111, %call113
  %85 = load double, ptr %zF, align 8, !tbaa !7
  %86 = load double, ptr %gamma, align 8, !tbaa !7
  %call115 = call double @pow(double noundef %85, double noundef %86) #24, !tbaa !20
  %mul116 = fmul double %mul114, %call115
  %87 = load double, ptr %xz, align 8, !tbaa !7
  %88 = load double, ptr %xz, align 8, !tbaa !7
  %mul117 = fmul double %87, %88
  %fneg = fneg double %mul117
  %expiryTime_118 = getelementptr inbounds nuw %"class.QuantLib::NoArbSabrModel", ptr %this1, i32 0, i32 0
  %89 = load double, ptr %expiryTime_118, align 8, !tbaa !9
  %mul119 = fmul double 2.000000e+00, %89
  %div120 = fdiv double %fneg, %mul119
  %90 = load double, ptr %h, align 8, !tbaa !7
  %91 = load double, ptr %kappa1, align 8, !tbaa !7
  %expiryTime_121 = getelementptr inbounds nuw %"class.QuantLib::NoArbSabrModel", ptr %this1, i32 0, i32 0
  %92 = load double, ptr %expiryTime_121, align 8, !tbaa !9
  %93 = call double @llvm.fmuladd.f64(double %91, double %92, double %90)
  %add123 = fadd double %div120, %93
  %call124 = call double @exp(double noundef %add123) #24, !tbaa !20
  %mul125 = fmul double %mul116, %call124
  %94 = load double, ptr %gamma, align 8, !tbaa !7
  %95 = load double, ptr %zF, align 8, !tbaa !7
  %96 = load double, ptr %zf, align 8, !tbaa !7
  %mul126 = fmul double %95, %96
  %expiryTime_127 = getelementptr inbounds nuw %"class.QuantLib::NoArbSabrModel", ptr %this1, i32 0, i32 0
  %97 = load double, ptr %expiryTime_127, align 8, !tbaa !9
  %div128 = fdiv double %mul126, %97
  %call129 = call noundef double @_ZN8QuantLib46modifiedBesselFunction_i_exponentiallyWeightedEdd(double noundef %94, double noundef %div128)
  %mul130 = fmul double %mul125, %call129
  store double %mul130, ptr %res, align 8, !tbaa !7
  %98 = load double, ptr %res, align 8, !tbaa !7
  store double %98, ptr %retval, align 8
  call void @llvm.lifetime.end.p0(i64 8, ptr %res) #24
  call void @llvm.lifetime.end.p0(i64 8, ptr %h) #24
  call void @llvm.lifetime.end.p0(i64 8, ptr %sqrtOmR) #24
  call void @llvm.lifetime.end.p0(i64 8, ptr %gamma) #24
  call void @llvm.lifetime.end.p0(i64 8, ptr %kappa1) #24
  call void @llvm.lifetime.end.p0(i64 8, ptr %Bp_B) #24
  call void @llvm.lifetime.end.p0(i64 8, ptr %xz) #24
  call void @llvm.lifetime.end.p0(i64 8, ptr %Jz) #24
  call void @llvm.lifetime.end.p0(i64 8, ptr %Jmzf) #24
  call void @llvm.lifetime.end.p0(i64 8, ptr %z) #24
  call void @llvm.lifetime.end.p0(i64 8, ptr %zF) #24
  call void @llvm.lifetime.end.p0(i64 8, ptr %zf) #24
  call void @llvm.lifetime.end.p0(i64 8, ptr %FOmB) #24
  call void @llvm.lifetime.end.p0(i64 8, ptr %fOmB) #24
  br label %return

return:                                           ; preds = %if.end, %if.then
  %99 = load double, ptr %retval, align 8
  ret double %99
}