; Function Attrs: mustprogress uwtable
define noundef double @_ZNK8QuantLib14NoArbSabrModel1pEd(ptr nocapture noundef nonnull readonly align 8 dereferenceable(112) %this, double noundef %f) local_unnamed_addr #0 align 2 {
entry:
  %cmp = fcmp olt double %f, 1.000000e-50
  br i1 %cmp, label %return, label %lor.lhs.false

lor.lhs.false:                                    ; preds = %entry
  %forward_ = getelementptr inbounds nuw i8, ptr %this, i64 72
  %0 = load double, ptr %forward_, align 8, !tbaa !16
  %cmp2 = fcmp olt double %0, 1.000000e-50
  br i1 %cmp2, label %return, label %if.end

if.end:                                           ; preds = %lor.lhs.false
  %beta_ = getelementptr inbounds nuw i8, ptr %this, i64 24
  %1 = load double, ptr %beta_, align 8, !tbaa !13
  %sub = fsub double 1.000000e+00, %1
  %call = tail call double @pow(double noundef %f, double noundef %sub) #32, !tbaa !24
  %call6 = tail call double @pow(double noundef %0, double noundef %sub) #32, !tbaa !24
  %alpha_ = getelementptr inbounds nuw i8, ptr %this, i64 16
  %2 = load double, ptr %alpha_, align 8, !tbaa !12
  %mul = fmul double %sub, %2
  %div = fdiv double %call, %mul
  %div13 = fdiv double %call6, %mul
  %sub14 = fsub double %div13, %div
  %rho_ = getelementptr inbounds nuw i8, ptr %this, i64 40
  %3 = load double, ptr %rho_, align 8, !tbaa !15
  %mul15 = fmul double %3, 2.000000e+00
  %nu_ = getelementptr inbounds nuw i8, ptr %this, i64 32
  %4 = load double, ptr %nu_, align 8, !tbaa !14
  %mul16 = fmul double %mul15, %4
  %5 = tail call double @llvm.fmuladd.f64(double %mul16, double %div, double 1.000000e+00)
  %mul20 = fmul double %4, %4
  %mul21 = fmul double %div, %mul20
  %6 = tail call double @llvm.fmuladd.f64(double %mul21, double %div, double %5)
  %call23 = tail call double @sqrt(double noundef %6) #32, !tbaa !24
  %7 = fneg double %4
  %neg = fmul double %mul15, %7
  %8 = tail call double @llvm.fmuladd.f64(double %neg, double %sub14, double 1.000000e+00)
  %mul32 = fmul double %mul20, %sub14
  %9 = tail call double @llvm.fmuladd.f64(double %mul32, double %sub14, double %8)
  %call34 = tail call double @sqrt(double noundef %9) #32, !tbaa !24
  %sub36 = fsub double %call34, %3
  %10 = tail call double @llvm.fmuladd.f64(double %4, double %sub14, double %sub36)
  %sub40 = fsub double 1.000000e+00, %3
  %div41 = fdiv double %10, %sub40
  %call42 = tail call double @log(double noundef %div41) #32, !tbaa !24
  %div44 = fdiv double %call42, %4
  %mul48 = fmul double %4, 1.250000e-01
  %mul50 = fmul double %4, %mul48
  %neg55 = fmul double %3, -3.000000e+00
  %11 = tail call double @llvm.fmuladd.f64(double %neg55, double %3, double 2.000000e+00)
  %mul58 = fmul double %3, 2.500000e-01
  %mul60 = fmul double %mul58, %4
  %mul62 = fmul double %2, %mul60
  %12 = fneg double %1
  %13 = fdiv double %12, %call6
  %neg64 = fmul double %13, %mul62
  %14 = tail call double @llvm.fmuladd.f64(double %mul50, double %11, double %neg64)
  %mul67 = fmul double %sub, 2.000000e+00
  %div68 = fdiv double 1.000000e+00, %mul67
  %neg72 = fneg double %3
  %15 = tail call double @llvm.fmuladd.f64(double %neg72, double %3, double 1.000000e+00)
  %call73 = tail call double @sqrt(double noundef %15) #32, !tbaa !24
  %mul75 = fmul double %1, 5.000000e-01
  %mul77 = fmul double %mul75, %3
  %mul80 = fmul double %sub, %call23
  %mul81 = fmul double %call23, %mul80
  %div82 = fdiv double %mul77, %mul81
  %mul84 = fmul double %4, %div
  %mul85 = fmul double %div, %call34
  %div86 = fdiv double %mul85, %div13
  %call87 = tail call double @log(double noundef %div86) #32, !tbaa !24
  %mul91 = fmul double %3, %4
  %16 = tail call double @llvm.fmuladd.f64(double %mul91, double %div, double 1.000000e+00)
  %div93 = fdiv double %16, %call73
  %17 = tail call double @llvm.fmuladd.f64(double %4, double %sub14, double %neg72)
  %div98 = fdiv double %17, %call73
  %call99 = tail call double @atan(double noundef %div98) #32, !tbaa !24
  %div101 = fdiv double %3, %call73
  %call102 = tail call double @atan(double noundef %div101) #32, !tbaa !24
  %add = fadd double %call99, %call102
  %mul103 = fmul double %div93, %add
  %18 = tail call double @llvm.fmuladd.f64(double %mul84, double %call87, double %mul103)
  %mul104 = fmul double %div82, %18
  %call105 = tail call double @pow(double noundef %call34, double noundef -1.500000e+00) #32, !tbaa !24
  %call108 = tail call double @pow(double noundef %f, double noundef %1) #32, !tbaa !24
  %mul109 = fmul double %2, %call108
  %19 = load double, ptr %this, align 8, !tbaa !3
  %mul110 = fmul double %mul109, %19
  %div111 = fdiv double %call105, %mul110
  %sub112 = fsub double 1.000000e+00, %div68
  %call113 = tail call double @pow(double noundef %div, double noundef %sub112) #32, !tbaa !24
  %mul114 = fmul double %call113, %div111
  %call115 = tail call double @pow(double noundef %div13, double noundef %div68) #32, !tbaa !24
  %mul116 = fmul double %call115, %mul114
  %20 = fneg double %div44
  %fneg = fmul double %div44, %20
  %mul119 = fmul double %19, 2.000000e+00
  %div120 = fdiv double %fneg, %mul119
  %21 = tail call double @llvm.fmuladd.f64(double %14, double %19, double %mul104)
  %add123 = fadd double %div120, %21
  %call124 = tail call double @exp(double noundef %add123) #32, !tbaa !24
  %mul125 = fmul double %call124, %mul116
  %mul126 = fmul double %div13, %div
  %div128 = fdiv double %mul126, %19
  %call129 = tail call noundef double @_ZN8QuantLib46modifiedBesselFunction_i_exponentiallyWeightedEdd(double noundef %div68, double noundef %div128)
  %mul130 = fmul double %call129, %mul125
  br label %return

return:                                           ; preds = %entry, %lor.lhs.false, %if.end
  %retval.0 = phi double [ %mul130, %if.end ], [ 0.000000e+00, %lor.lhs.false ], [ 0.000000e+00, %entry ]
  ret double %retval.0
}